target datalayout = "e-m:e-p270:32:32-p271:32:32-p272:64:64-i64:64-i128:128-f80:128-n8:16:32:64-S128"
target triple = "x86_64-pc-linux-gnu"

%class.symbol = type { ptr }
%class.goal2sat = type <{ ptr, i32, [4 x i8] }>
%"struct.goal2sat::imp" = type <{ %"class.sat::sat_internalizer", ptr, %class.pb_util, %class.svector, %class.svector.2, %class.obj_map, %class.u_map, %class.svector.6, %class.ref_vector, %class.obj_hashtable, ptr, ptr, ptr, ptr, i8, [7 x i8], i64, %class.ref_vector.11, %class.ref_vector.16, i8, i8, i8, [5 x i8], %class.svector.2, %class.symbol, i32, [4 x i8] }>
%"class.sat::sat_internalizer" = type { ptr }
%class.pb_util = type { ptr, i32, %class.vector, %class.vector.0, %class.rational }
%class.vector = type { ptr }
%class.vector.0 = type { ptr }
%class.rational = type { %class.mpq }
%class.mpq = type { %class.mpz, %class.mpz }
%class.mpz = type { i32, i8, ptr }
%class.svector = type { %class.vector.1 }
%class.vector.1 = type { ptr }
%class.obj_map = type { %class.core_hashtable }
%class.core_hashtable = type <{ ptr, i32, i32, i32, [4 x i8] }>
%class.u_map = type { %class.map }
%class.map = type { %class.table2map }
%class.table2map = type { %class.core_hashtable.4 }
%class.core_hashtable.4 = type <{ ptr, i32, i32, i32, [4 x i8] }>
%class.svector.6 = type { %class.vector.7 }
%class.vector.7 = type { ptr }
%class.ref_vector = type { %class.ref_vector_core }
%class.ref_vector_core = type { %class.ref_manager_wrapper, %class.ptr_vector }
%class.ref_manager_wrapper = type { ptr }
%class.ptr_vector = type { %class.vector.8 }
%class.vector.8 = type { ptr }
%class.obj_hashtable = type { %class.core_hashtable.base.10, [4 x i8] }
%class.core_hashtable.base.10 = type <{ ptr, i32, i32, i32 }>
%class.ref_vector.11 = type { %class.ref_vector_core.12 }
%class.ref_vector_core.12 = type { %class.ref_manager_wrapper.13, %class.ptr_vector.14 }
%class.ref_manager_wrapper.13 = type { ptr }
%class.ptr_vector.14 = type { %class.vector.15 }
%class.vector.15 = type { ptr }
%class.ref_vector.16 = type { %class.ref_vector_core.17 }
%class.ref_vector_core.17 = type { %class.ref_manager_wrapper.18, %class.ptr_vector.19 }
%class.ref_manager_wrapper.18 = type { ptr }
%class.ptr_vector.19 = type { %class.vector.20 }
%class.vector.20 = type { ptr }
%class.svector.2 = type { %class.vector.3 }
%class.vector.3 = type { ptr }

; Function Attrs: mustprogress nounwind uwtable
define hidden noundef zeroext i1 @_ZNK8goal2sat7has_eufEv(ptr noundef nonnull align 8 dereferenceable(12) %0) #4 align 2 {
  %2 = alloca ptr, align 8
  store ptr %0, ptr %2, align 8, !tbaa !8
  %3 = load ptr, ptr %2, align 8
  %4 = getelementptr inbounds nuw %class.goal2sat, ptr %3, i32 0, i32 0
  %5 = load ptr, ptr %4, align 8, !tbaa !10
  %6 = icmp ne ptr %5, null
  br i1 %6, label %7, label %13

7:                                                ; preds = %1
  %8 = getelementptr inbounds nuw %class.goal2sat, ptr %3, i32 0, i32 0
  %9 = load ptr, ptr %8, align 8, !tbaa !10
  %10 = getelementptr inbounds nuw %"struct.goal2sat::imp", ptr %9, i32 0, i32 20
  %11 = load i8, ptr %10, align 1, !tbaa !99, !range !92, !noundef !93
  %12 = trunc i8 %11 to i1
  br label %13

13:                                               ; preds = %7, %1
  %14 = phi i1 [ false, %1 ], [ %12, %7 ]
  ret i1 %14
}